target datalayout = "e-m:e-p270:32:32-p271:32:32-p272:64:64-i64:64-i128:128-f80:128-n8:16:32:64-S128"
target triple = "x86_64-unknown-linux-gnu"

%struct.EHCIState = type { %struct.USBBus, ptr, ptr, %struct.MemoryRegion, ptr, %struct.MemoryRegion, %struct.MemoryRegion, %struct.MemoryRegion, i32, i8, i16, i16, i16, i16, i32, [16 x i8], %union.anon.5, [6 x i32], ptr, ptr, i8, i32, i32, [6 x %struct.USBPort], [6 x ptr], i32, i32, %union.EHCIQueueHead, %union.EHCIQueueHead, i32, i32, %struct.USBPacket, %struct.QEMUSGList, i64, i32, i32, i8, ptr }
%struct.USBBus = type { %struct.BusState, ptr, i32, i32, i32, %union.anon, %union.anon.0, %union.anon.1 }
%struct.BusState = type { %struct.Object, ptr, ptr, ptr, i32, i8, i8, i32, %union.BusChildHead, %struct.BusStateEntry, %struct.ResettableState }
%struct.Object = type { ptr, ptr, ptr, i32, ptr }
%union.BusChildHead = type { %struct.QTailQLink }
%struct.QTailQLink = type { ptr, ptr }
%struct.BusStateEntry = type { ptr, ptr }
%struct.ResettableState = type { i32, i8, i8 }
%union.anon = type { %struct.QTailQLink }
%union.anon.0 = type { %struct.QTailQLink }
%union.anon.1 = type { %struct.QTailQLink }
%struct.MemoryRegion = type { %struct.Object, i8, i8, i8, i8, i8, i8, i8, i8, i8, i8, ptr, ptr, ptr, ptr, ptr, ptr, i32, i128, i64, ptr, i64, i8, i8, i8, i8, i8, ptr, i64, i32, %union.anon.2, %union.anon.3, %union.anon.4, ptr, i32, ptr, ptr, i8 }
%union.anon.2 = type { %struct.QTailQLink }
%union.anon.3 = type { %struct.QTailQLink }
%union.anon.4 = type { %struct.QTailQLink }
%union.anon.5 = type { [17 x i32] }
%struct.USBPort = type { ptr, i32, i32, [16 x i8], ptr, ptr, i32, %union.anon.6 }
%union.anon.6 = type { %struct.QTailQLink }
%union.EHCIQueueHead = type { %struct.QTailQLink }
%struct.USBPacket = type { i32, i64, ptr, i32, %struct.QEMUIOVector, i64, i8, i8, i32, i32, i32, ptr, %union.anon.10, %union.anon.11 }
%struct.QEMUIOVector = type { ptr, i32, %union.anon.7 }
%union.anon.7 = type { %struct.anon.8 }
%struct.anon.8 = type { i32, %struct.iovec }
%struct.iovec = type { ptr, i64 }
%union.anon.10 = type { %struct.QTailQLink }
%union.anon.11 = type { %struct.QTailQLink }
%struct.QEMUSGList = type { ptr, i32, i32, i64, ptr, ptr }
%struct.anon = type { i32, i32, i32, i32, i32, i32, i32, [9 x i32], i32 }

; Function Attrs: nounwind sspstrong uwtable
define internal i32 @usb_ehci_pre_save(ptr noundef %opaque) #0 {
entry:
  %opaque.addr = alloca ptr, align 8
  %ehci = alloca ptr, align 8
  %new_frindex = alloca i32, align 4
  store ptr %opaque, ptr %opaque.addr, align 8
  %0 = load ptr, ptr %opaque.addr, align 8
  store ptr %0, ptr %ehci, align 8
  %1 = load ptr, ptr %ehci, align 8
  %2 = getelementptr inbounds %struct.EHCIState, ptr %1, i32 0, i32 16
  %frindex = getelementptr inbounds %struct.anon, ptr %2, i32 0, i32 3
  %3 = load i32, ptr %frindex, align 4
  %and = and i32 %3, -8
  store i32 %and, ptr %new_frindex, align 4
  %4 = load ptr, ptr %ehci, align 8
  %5 = getelementptr inbounds %struct.EHCIState, ptr %4, i32 0, i32 16
  %frindex1 = getelementptr inbounds %struct.anon, ptr %5, i32 0, i32 3
  %6 = load i32, ptr %frindex1, align 4
  %7 = load i32, ptr %new_frindex, align 4
  %sub = sub i32 %6, %7
  %conv = zext i32 %sub to i64
  %mul = mul i64 %conv, 125000
  %8 = load ptr, ptr %ehci, align 8
  %last_run_ns = getelementptr inbounds %struct.EHCIState, ptr %8, i32 0, i32 33
  %9 = load i64, ptr %last_run_ns, align 16
  %sub2 = sub i64 %9, %mul
  store i64 %sub2, ptr %last_run_ns, align 16
  %10 = load i32, ptr %new_frindex, align 4
  %11 = load ptr, ptr %ehci, align 8
  %12 = getelementptr inbounds %struct.EHCIState, ptr %11, i32 0, i32 16
  %frindex3 = getelementptr inbounds %struct.anon, ptr %12, i32 0, i32 3
  store i32 %10, ptr %frindex3, align 4
  ret i32 0
}