; Function Attrs: mustprogress nofree norecurse nosync nounwind sspstrong willreturn memory(argmem: readwrite) uwtable
define internal noundef i32 @usb_ehci_pre_save(ptr noundef captures(none) %opaque) #4 {
entry:
  %frindex = getelementptr inbounds nuw i8, ptr %opaque, i64 1360
  %0 = load i32, ptr %frindex, align 4
  %and = and i32 %0, -8
  %sub = and i32 %0, 7
  %narrow = mul nuw nsw i32 %sub, 125000
  %mul = zext nneg i32 %narrow to i64
  %last_run_ns = getelementptr inbounds nuw i8, ptr %opaque, i64 2176
  %1 = load i64, ptr %last_run_ns, align 16
  %sub2 = sub i64 %1, %mul
  store i64 %sub2, ptr %last_run_ns, align 16
  store i32 %and, ptr %frindex, align 4
  ret i32 0
}